Certificate:
    Data:
        Version: 3 (0x2)
        Serial Number: 4097 (0x1001)
        Signature Algorithm: md5WithRSAEncryption
        Issuer: C=US, ST=US, L=US, O=Internet Widgits Pty Ltd, CN=keycorp
        Validity
            Not Before: Mar 13 04:36:38 2024 GMT
            Not After : Mar 13 04:36:38 2025 GMT
        Subject: C=US, ST=US, O=Internet Widgits Pty Ltd, CN=client
        Subject Public Key Info:
            Public Key Algorithm: rsaEncryption
                Public-Key: (4096 bit)
                Modulus:
                    00:d3:49:d6:25:6a:9a:09:14:38:ee:17:a7:d1:6d:
                    41:6b:94:26:ac:24:f1:e3:63:52:e1:03:8e:ee:26:
                    b1:b4:fa:9b:78:13:22:e6:2e:2e:3a:fb:05:c5:07:
                    74:8e:67:3c:97:80:76:d0:83:51:3a:6c:ef:26:9b:
                    47:99:aa:62:bb:7b:0c:c7:3c:d7:26:d3:74:29:f6:
                    e5:10:93:68:2f:f7:2d:90:73:e5:fe:b9:80:d5:6b:
                    56:e0:68:fc:2a:0d:17:b8:fc:0a:bd:fd:ae:5c:e1:
                    25:a2:85:ba:07:2d:83:bb:c6:ad:ad:0d:b9:3c:6a:
                    e4:d2:e4:80:b6:21:6a:d6:a9:12:5f:c1:c5:64:52:
                    fa:22:21:9e:45:78:ec:31:47:b2:e9:1f:4f:07:14:
                    2c:06:13:df:5c:83:0c:56:35:34:2e:d1:3b:5a:5a:
                    44:77:91:42:4f:47:c1:74:81:a6:4f:68:95:29:7f:
                    ee:4a:cd:eb:1c:b7:bd:6c:56:d1:6e:1c:94:29:3a:
                    d9:da:70:01:b5:41:35:3f:96:37:37:2e:50:67:a2:
                    9a:f9:ff:54:4c:90:18:f5:69:65:90:86:f7:e3:95:
                    cc:91:03:1c:02:50:b1:2c:41:72:22:66:c7:e0:92:
                    04:af:90:93:a5:32:5f:bb:e8:ec:da:54:cc:91:89:
                    0b:c6:2d:32:cc:a3:8e:d3:0d:17:a4:23:9e:6b:26:
                    dd:b4:54:44:b4:df:65:78:e1:24:70:25:f6:74:16:
                    98:07:e7:bf:78:a5:83:fa:69:24:8d:60:4a:9a:b8:
                    65:d2:5d:12:49:54:7d:98:4e:a0:a4:99:03:56:4b:
                    14:0e:b1:b3:e9:bf:cb:2a:70:78:b9:70:f0:14:09:
                    6c:97:c2:74:d4:d8:de:7a:9b:62:0c:36:2d:3f:82:
                    d2:3f:7a:99:15:83:52:4e:58:68:d4:22:96:5e:93:
                    24:ed:dc:aa:27:9a:48:26:cf:7a:0d:c0:5d:99:13:
                    0c:76:f3:2b:d4:04:32:86:3d:19:3f:b5:fb:8c:c6:
                    68:16:44:e4:9f:60:d4:47:da:b1:7a:98:d3:2a:33:
                    53:b0:a1:c0:94:a5:a0:5a:60:18:07:d8:c4:fe:33:
                    8b:4a:83:15:87:d8:d6:26:7c:aa:f4:0c:ab:7a:3e:
                    a8:64:3f:8f:88:4a:00:68:59:c6:e2:12:61:70:29:
                    f6:30:c8:a5:e0:63:80:62:47:27:81:d1:da:1d:d4:
                    68:30:04:6e:4a:bb:c6:e7:83:46:a2:f5:11:f7:62:
                    3d:14:07:4d:72:87:63:ec:2c:52:70:f5:a3:9e:eb:
                    0f:07:4c:25:4b:f6:64:3c:1f:ab:15:05:41:40:0c:
                    c6:8d:09
                Exponent: 65537 (0x10001)
        X509v3 extensions:
            X509v3 Basic Constraints: 
                CA:FALSE
            Netscape Comment: 
                OpenSSL Generated Certificate
            X509v3 Subject Key Identifier: 
                59:0B:D6:F5:65:68:44:EC:68:B9:95:E8:2A:B3:21:0B:96:82:EA:94
            X509v3 Authority Key Identifier: 
                keyid:0C:50:6A:0F:B2:0A:08:35:32:0D:2D:E7:FB:68:42:8F:7F:A2:74:CE
                DirName:/C=US/ST=US/L=US/O=Internet Widgits Pty Ltd/CN=keycorp
                serial:76:FA:E1:67:2A:55:50:4F:E7:61:60:37:AD:D6:80:3B:31:F8:01:D2
    Signature Algorithm: md5WithRSAEncryption
    Signature Value:
        0a:9e:c6:61:8e:87:93:70:da:d5:7d:e6:d3:80:ba:d4:6c:ed:
        16:b6:90:a8:3a:e7:d0:da:5a:71:07:9f:8f:cb:e3:d9:b4:06:
        2a:39:58:b8:ac:23:09:34:ef:4d:f8:19:d9:c2:07:87:3c:82:
        18:89:09:1f:02:85:c2:eb:5c:a2:d4:50:30:29:96:2d:f5:91:
        7a:2b:0f:76:cd:4c:88:67:9b:48:ef:a9:1c:75:2a:ec:84:9b:
        b3:fc:62:07:b8:c6:5a:b7:81:8a:a0:d3:27:06:fd:9a:e6:a8:
        d0:c1:9f:f1:0b:d2:31:5b:2f:a2:2d:88:d1:a1:35:24:fb:65:
        16:e9:7b:b1:36:46:0f:ec:d0:47:a3:cc:48:00:59:4a:06:08:
        88:3b:4c:97:62:91:c9:74:58:e4:44:a0:7b:63:78:1b:ce:6c:
        fc:57:7b:fc:2e:e3:80:97:85:2e:28:e3:ac:41:de:52:af:bd:
        fe:e6:ac:47:64:f4:5e:2a:ec:e3:8c:3d:c4:e2:9e:b7:95:f0:
        4d:df:e8:b8:81:69:bc:b5:4c:b8:e7:ec:c3:d0:0d:8d:b1:e7:
        35:e5:78:93:9b:ba:63:b9:78:82:12:0c:45:57:00:db:19:36:
        31:e1:6e:21:18:b9:b2:c5:a1:79:23:b9:0f:47:fc:ef:07:ff:
        f0:aa:d8:e6:9c:69:6c:31:dc:71:78:5e:34:35:00:d6:a4:d1:
        3d:1a:af:eb:52:31:6e:8b:52:3e:1a:22:33:7e:45:df:d3:34:
        22:c3:40:aa:9f:2c:c4:d6:1f:e0:fa:5d:6c:0d:ce:9e:1c:da:
        62:0b:8e:d6:12:b9:a1:a8:d9:a3:8b:b7:f9:28:b2:da:44:1e:
        79:ca:ba:83:43:82:43:b8:74:ce:d7:74:2d:4c:35:30:c8:07:
        14:c8:6d:c0:15:75:5c:03:7d:4a:8e:5c:b7:02:54:d8:2a:86:
        e6:aa:84:f8:b4:d1:76:4f:69:81:ec:b0:b8:5b:ff:36:a5:a9:
        8d:b6:71:df:f5:3f:58:07:68:8a:53:a1:97:64:ee:1f:43:91:
        45:13:9f:96:d6:ac:a2:bc:01:a2:ec:9d:27:78:5e:38:9d:7f:
        9e:9a:0b:05:2b:27:cb:f4:fc:68:54:3e:fb:5f:a8:05:55:28:
        cf:49:c9:c7:1c:2e:d4:a6:3e:7a:d0:ae:85:98:dc:84:b9:a5:
        dc:a9:05:5d:33:60:9f:2f:43:54:2d:9b:a1:6a:16:a9:37:5d:
        1d:f6:d8:be:5a:83:ee:f9:2a:a6:8c:bf:e5:f5:62:79:54:a8:
        6e:5f:ce:01:d2:57:b3:b9:f6:0a:25:7f:07:c7:86:9f:9e:46:
        3a:eb:9a:fc:2b:8f:ae:04
-----BEGIN CERTIFICATE-----
MIIGHjCCBAagAwIBAgICEAEwDQYJKoZIhvcNAQEEBQAwXDELMAkGA1UEBhMCVVMx
CzAJBgNVBAgMAlVTMQswCQYDVQQHDAJVUzEhMB8GA1UECgwYSW50ZXJuZXQgV2lk
Z2l0cyBQdHkgTHRkMRAwDgYDVQQDDAdrZXljb3JwMB4XDTI0MDMxMzA0MzYzOFoX
DTI1MDMxMzA0MzYzOFowTjELMAkGA1UEBhMCVVMxCzAJBgNVBAgMAlVTMSEwHwYD
VQQKDBhJbnRlcm5ldCBXaWRnaXRzIFB0eSBMdGQxDzANBgNVBAMMBmNsaWVudDCC
AiIwDQYJKoZIhvcNAQEBBQADggIPADCCAgoCggIBANNJ1iVqmgkUOO4Xp9FtQWuU
Jqwk8eNjUuEDju4msbT6m3gTIuYuLjr7BcUHdI5nPJeAdtCDUTps7yabR5mqYrt7
DMc81ybTdCn25RCTaC/3LZBz5f65gNVrVuBo/CoNF7j8Cr39rlzhJaKFugctg7vG
ra0NuTxq5NLkgLYhatapEl/BxWRS+iIhnkV47DFHsukfTwcULAYT31yDDFY1NC7R
O1paRHeRQk9HwXSBpk9olSl/7krN6xy3vWxW0W4clCk62dpwAbVBNT+WNzcuUGei
mvn/VEyQGPVpZZCG9+OVzJEDHAJQsSxBciJmx+CSBK+Qk6UyX7vo7NpUzJGJC8Yt
MsyjjtMNF6Qjnmsm3bRURLTfZXjhJHAl9nQWmAfnv3ilg/ppJI1gSpq4ZdJdEklU
fZhOoKSZA1ZLFA6xs+m/yypweLlw8BQJbJfCdNTY3nqbYgw2LT+C0j96mRWDUk5Y
aNQill6TJO3cqieaSCbPeg3AXZkTDHbzK9QEMoY9GT+1+4zGaBZE5J9g1EfasXqY
0yozU7ChwJSloFpgGAfYxP4zi0qDFYfY1iZ8qvQMq3o+qGQ/j4hKAGhZxuISYXAp
9jDIpeBjgGJHJ4HR2h3UaDAEbkq7xueDRqL1EfdiPRQHTXKHY+wsUnD1o57rDwdM
JUv2ZDwfqxUFQUAMxo0JAgMBAAGjgfcwgfQwCQYDVR0TBAIwADAsBglghkgBhvhC
AQ0EHxYdT3BlblNTTCBHZW5lcmF0ZWQgQ2VydGlmaWNhdGUwHQYDVR0OBBYEFFkL
1vVlaETsaLmV6CqzIQuWguqUMIGZBgNVHSMEgZEwgY6AFAxQag+yCgg1Mg0t5/to
Qo9/onTOoWCkXjBcMQswCQYDVQQGEwJVUzELMAkGA1UECAwCVVMxCzAJBgNVBAcM
AlVTMSEwHwYDVQQKDBhJbnRlcm5ldCBXaWRnaXRzIFB0eSBMdGQxEDAOBgNVBAMM
B2tleWNvcnCCFHb64WcqVVBP52FgN63WgDsx+AHSMA0GCSqGSIb3DQEBBAUAA4IC
AQAKnsZhjoeTcNrVfebTgLrUbO0WtpCoOufQ2lpxB5+Py+PZtAYqOVi4rCMJNO9N
+BnZwgeHPIIYiQkfAoXC61yi1FAwKZYt9ZF6Kw92zUyIZ5tI76kcdSrshJuz/GIH
uMZat4GKoNMnBv2a5qjQwZ/xC9IxWy+iLYjRoTUk+2UW6XuxNkYP7NBHo8xIAFlK
BgiIO0yXYpHJdFjkRKB7Y3gbzmz8V3v8LuOAl4UuKOOsQd5Sr73+5qxHZPReKuzj
jD3E4p63lfBN3+i4gWm8tUy45+zD0A2Nsec15XiTm7pjuXiCEgxFVwDbGTYx4W4h
GLmyxaF5I7kPR/zvB//wqtjmnGlsMdxxeF40NQDWpNE9Gq/rUjFui1I+GiIzfkXf
0zQiw0CqnyzE1h/g+l1sDc6eHNpiC47WErmhqNmji7f5KLLaRB55yrqDQ4JDuHTO
13QtTDUwyAcUyG3AFXVcA31Kjly3AlTYKobmqoT4tNF2T2mB7LC4W/82pamNtnHf
9T9YB2iKU6GXZO4fQ5FFE5+W1qyivAGi7J0neF44nX+emgsFKyfL9PxoVD77X6gF
VSjPScnHHC7Upj560K6FmNyEuaXcqQVdM2CfL0NULZuhahapN10d9ti+WoPu+Sqm
jL/l9WJ5VKhuX84B0lezufYKJX8Hx4afnkY665r8K4+uBA==
-----END CERTIFICATE-----
