Certificate:
    Data:
        Version: 3 (0x2)
        Serial Number: 4097 (0x1001)
        Signature Algorithm: md5WithRSAEncryption
        Issuer: C=US, ST=UT, L=Salt Lake City, O=uofu, CN=ziz
        Validity
            Not Before: Mar 27 19:28:09 2024 GMT
            Not After : Mar 27 19:28:09 2025 GMT
        Subject: C=US, ST=UT, O=uofu, CN=client
        Subject Public Key Info:
            Public Key Algorithm: rsaEncryption
                Public-Key: (4096 bit)
                Modulus:
                    00:d3:4d:68:f9:14:9b:4b:01:d8:5c:f4:ed:01:5a:
                    18:25:8e:52:05:a4:c6:6c:43:1f:44:b1:86:63:1a:
                    1a:c4:c4:c1:86:d1:9b:96:45:78:0f:50:c4:33:dd:
                    ac:88:8a:ed:0f:96:b3:c9:4a:59:1c:b3:bf:bb:65:
                    54:38:33:86:1e:5d:1d:4d:cf:d4:e0:0b:d2:c0:d0:
                    7b:75:27:22:e7:2b:6b:83:c0:47:26:c8:29:15:72:
                    53:e6:be:c4:99:07:9a:df:42:22:7d:ad:ca:90:84:
                    ac:05:09:b0:03:be:6e:f8:12:2e:f1:7e:57:63:13:
                    bc:d4:e9:95:4d:97:b3:51:9e:f2:b5:54:e9:d2:43:
                    61:e7:a6:5d:dc:a9:9f:a9:e9:70:8f:b5:d8:f2:36:
                    63:56:a2:83:dc:3d:2a:96:9c:43:f9:b1:82:74:57:
                    8a:93:96:40:8e:d2:d1:57:0e:da:a9:6a:4c:db:73:
                    dc:21:57:92:73:7a:4c:cb:5f:40:60:f7:88:33:ea:
                    72:6d:60:eb:62:d5:fd:a3:b3:0d:bb:4f:c7:d1:34:
                    21:ff:ee:03:18:ba:e4:e4:bc:e0:85:d7:01:52:c1:
                    6b:7c:a7:2e:66:d0:71:94:e7:98:d3:c8:33:4c:74:
                    a3:97:9b:ca:4a:ba:63:00:40:b2:39:9c:fb:1f:17:
                    f5:4a:dd:a1:c8:cb:63:e6:b8:36:87:29:dc:e8:42:
                    f1:b8:77:31:56:a5:9e:d7:5a:a6:71:81:34:91:53:
                    d4:26:7f:b7:3f:d5:22:2c:9a:a3:2b:7b:66:f1:59:
                    4d:3f:71:19:34:a2:fb:8b:91:dd:3a:79:91:8e:58:
                    e4:17:ed:b9:40:0f:f2:47:10:be:0f:0b:ca:26:4a:
                    18:4c:5e:e9:df:dc:4d:67:91:e4:1b:90:c4:56:3d:
                    84:b4:72:17:f4:30:e7:c5:63:0c:ae:b7:da:f5:53:
                    98:f6:00:ae:62:b9:bd:50:7b:b9:71:fd:e4:9a:2f:
                    f1:3c:cb:59:92:bf:3a:25:e1:c7:e1:c7:cd:9e:cb:
                    b9:73:0b:22:59:1a:3e:f4:5c:45:55:12:2a:bf:a7:
                    20:82:f9:39:00:a0:90:6b:89:6b:41:70:e5:da:4c:
                    c5:06:90:39:06:6a:75:60:a8:30:6c:2a:96:5d:eb:
                    56:0e:31:44:b1:a5:89:5d:cf:21:40:d8:c5:31:1c:
                    d5:58:6a:d5:db:3b:7b:a0:62:39:6c:04:f8:7a:75:
                    bf:d8:26:0c:6b:84:34:23:f2:d1:a8:da:bb:26:89:
                    19:c9:54:5c:62:c1:be:1a:a4:db:f2:04:5a:a3:2e:
                    2c:2f:63:32:b8:5f:58:28:ec:27:7d:a8:55:3a:e0:
                    29:1a:d9
                Exponent: 65537 (0x10001)
        X509v3 extensions:
            X509v3 Basic Constraints: 
                CA:FALSE
            Netscape Comment: 
                OpenSSL Generated Certificate
            X509v3 Subject Key Identifier: 
                34:C5:C9:B8:5F:DC:88:2E:C2:E1:94:39:21:FD:42:BE:0B:6A:B9:30
            X509v3 Authority Key Identifier: 
                keyid:E1:72:BE:17:34:6D:A4:F9:96:18:D4:2F:CA:25:14:F9:D8:AD:A5:A4
                DirName:/C=US/ST=UT/L=Salt Lake City/O=uofu/CN=ziz
                serial:0A:CE:74:B2:EE:6A:41:12:FD:2E:D4:4C:0A:69:AD:3D:73:84:11:B1
    Signature Algorithm: md5WithRSAEncryption
    Signature Value:
        6f:31:46:a5:09:aa:82:c6:f6:da:e9:80:31:4e:ae:9a:54:b9:
        cd:3c:9d:cd:ee:f3:d6:3f:a7:78:6f:93:03:10:ab:75:d9:50:
        ff:b0:ec:67:92:4b:df:be:26:42:9f:70:20:1d:07:c1:85:9a:
        23:26:fa:cc:62:46:29:31:83:c5:88:22:84:97:2e:6c:dc:44:
        1f:33:d0:ff:e2:23:42:97:0f:13:7c:90:e2:44:e7:73:9e:32:
        28:7d:41:de:ea:14:25:31:7d:64:a9:ef:a0:4b:a4:bc:4d:e1:
        2a:f3:0f:09:a5:b1:53:16:2c:e1:c7:11:02:24:d9:cd:7a:d8:
        44:73:8b:79:aa:d2:02:f3:60:72:b5:d3:60:eb:0a:09:18:10:
        29:f2:28:db:5f:9a:12:17:b1:96:80:2d:52:79:8f:97:9f:bd:
        62:1d:42:be:dd:a7:9e:62:3c:d0:cd:eb:43:51:b2:7a:6e:9f:
        64:69:ed:90:b2:f7:6e:37:dd:56:70:67:6c:0d:df:d3:cb:b5:
        7e:b2:6b:94:00:0c:28:80:11:2c:92:3f:96:b6:55:e6:03:af:
        56:b6:fa:0a:a4:85:73:eb:8f:36:ad:6d:ed:ba:27:a5:17:94:
        39:d3:10:04:3b:79:0e:03:c7:f3:60:a7:e1:72:76:ba:a3:8a:
        e7:fd:9e:ec:81:13:df:c1:6a:3a:e7:e2:c4:2e:4e:e9:09:fc:
        a7:31:95:fe:d6:ea:f3:9e:ad:9a:94:09:62:1d:c4:78:67:07:
        4c:ba:71:af:13:77:32:4a:a5:74:29:7c:6c:df:d2:2a:8e:b3:
        1e:2a:24:e1:9c:83:12:b2:f6:46:9b:f8:9e:d2:4f:33:d1:99:
        c0:47:ea:f0:3f:00:e6:ad:11:9a:1c:c5:17:a8:79:49:bc:47:
        7d:d9:57:0e:39:25:e1:8a:c1:58:ba:7d:54:f4:18:12:58:12:
        95:29:5d:39:d2:c6:7b:47:e8:24:62:fe:c7:d3:95:7c:f4:ab:
        aa:2c:57:59:7e:76:21:eb:2a:05:9e:a5:c8:0e:3b:75:f3:50:
        86:33:ed:df:da:d2:ba:25:f5:d2:36:c7:46:c9:43:a0:73:b7:
        1a:e5:8b:0b:da:19:68:15:6f:18:26:33:af:30:98:78:f2:78:
        90:81:9b:be:b0:26:49:f6:2d:7d:2e:fb:de:dc:8a:90:dc:2e:
        ed:fa:4a:cf:2d:fa:16:ad:a3:94:7f:b0:50:b6:60:a1:8d:25:
        f4:f2:52:69:7e:e6:d5:51:82:ae:97:b5:28:93:9b:18:31:30:
        31:0e:73:41:f4:0a:56:df:d6:f3:94:cd:0e:75:e3:c8:0a:e2:
        5b:77:76:40:33:01:43:d2
-----BEGIN CERTIFICATE-----
MIIF8jCCA9qgAwIBAgICEAEwDQYJKoZIhvcNAQEEBQAwUDELMAkGA1UEBhMCVVMx
CzAJBgNVBAgMAlVUMRcwFQYDVQQHDA5TYWx0IExha2UgQ2l0eTENMAsGA1UECgwE
dW9mdTEMMAoGA1UEAwwDeml6MB4XDTI0MDMyNzE5MjgwOVoXDTI1MDMyNzE5Mjgw
OVowOjELMAkGA1UEBhMCVVMxCzAJBgNVBAgMAlVUMQ0wCwYDVQQKDAR1b2Z1MQ8w
DQYDVQQDDAZjbGllbnQwggIiMA0GCSqGSIb3DQEBAQUAA4ICDwAwggIKAoICAQDT
TWj5FJtLAdhc9O0BWhgljlIFpMZsQx9EsYZjGhrExMGG0ZuWRXgPUMQz3ayIiu0P
lrPJSlkcs7+7ZVQ4M4YeXR1Nz9TgC9LA0Ht1JyLnK2uDwEcmyCkVclPmvsSZB5rf
QiJ9rcqQhKwFCbADvm74Ei7xfldjE7zU6ZVNl7NRnvK1VOnSQ2Hnpl3cqZ+p6XCP
tdjyNmNWooPcPSqWnEP5sYJ0V4qTlkCO0tFXDtqpakzbc9whV5JzekzLX0Bg94gz
6nJtYOti1f2jsw27T8fRNCH/7gMYuuTkvOCF1wFSwWt8py5m0HGU55jTyDNMdKOX
m8pKumMAQLI5nPsfF/VK3aHIy2PmuDaHKdzoQvG4dzFWpZ7XWqZxgTSRU9Qmf7c/
1SIsmqMre2bxWU0/cRk0ovuLkd06eZGOWOQX7blAD/JHEL4PC8omShhMXunf3E1n
keQbkMRWPYS0chf0MOfFYwyut9r1U5j2AK5iub1Qe7lx/eSaL/E8y1mSvzol4cfh
x82ey7lzCyJZGj70XEVVEiq/pyCC+TkAoJBriWtBcOXaTMUGkDkGanVgqDBsKpZd
61YOMUSxpYldzyFA2MUxHNVYatXbO3ugYjlsBPh6db/YJgxrhDQj8tGo2rsmiRnJ
VFxiwb4apNvyBFqjLiwvYzK4X1go7Cd9qFU64Cka2QIDAQABo4HrMIHoMAkGA1Ud
EwQCMAAwLAYJYIZIAYb4QgENBB8WHU9wZW5TU0wgR2VuZXJhdGVkIENlcnRpZmlj
YXRlMB0GA1UdDgQWBBQ0xcm4X9yILsLhlDkh/UK+C2q5MDCBjQYDVR0jBIGFMIGC
gBThcr4XNG2k+ZYY1C/KJRT52K2lpKFUpFIwUDELMAkGA1UEBhMCVVMxCzAJBgNV
BAgMAlVUMRcwFQYDVQQHDA5TYWx0IExha2UgQ2l0eTENMAsGA1UECgwEdW9mdTEM
MAoGA1UEAwwDeml6ghQKznSy7mpBEv0u1EwKaa09c4QRsTANBgkqhkiG9w0BAQQF
AAOCAgEAbzFGpQmqgsb22umAMU6umlS5zTydze7z1j+neG+TAxCrddlQ/7DsZ5JL
374mQp9wIB0HwYWaIyb6zGJGKTGDxYgihJcubNxEHzPQ/+IjQpcPE3yQ4kTnc54y
KH1B3uoUJTF9ZKnvoEukvE3hKvMPCaWxUxYs4ccRAiTZzXrYRHOLearSAvNgcrXT
YOsKCRgQKfIo21+aEhexloAtUnmPl5+9Yh1Cvt2nnmI80M3rQ1Gyem6fZGntkLL3
bjfdVnBnbA3f08u1frJrlAAMKIARLJI/lrZV5gOvVrb6CqSFc+uPNq1t7bonpReU
OdMQBDt5DgPH82Cn4XJ2uqOK5/2e7IET38FqOufixC5O6Qn8pzGV/tbq856tmpQJ
Yh3EeGcHTLpxrxN3MkqldCl8bN/SKo6zHiok4ZyDErL2Rpv4ntJPM9GZwEfq8D8A
5q0RmhzFF6h5SbxHfdlXDjkl4YrBWLp9VPQYElgSlSldOdLGe0foJGL+x9OVfPSr
qixXWX52IesqBZ6lyA47dfNQhjPt39rSuiX10jbHRslDoHO3GuWLC9oZaBVvGCYz
rzCYePJ4kIGbvrAmSfYtfS773tyKkNwu7fpKzy36Fq2jlH+wULZgoY0l9PJSaX7m
1VGCrpe1KJObGDEwMQ5zQfQKVt/W85TNDnXjyAriW3d2QDMBQ9I=
-----END CERTIFICATE-----
