Certificate:
    Data:
        Version: 3 (0x2)
        Serial Number: 4096 (0x1000)
        Signature Algorithm: md5WithRSAEncryption
        Issuer: C=US, ST=UT, L=Salt Lake City, O=uofu, CN=ziz
        Validity
            Not Before: Mar 27 19:27:41 2024 GMT
            Not After : Mar 27 19:27:41 2025 GMT
        Subject: C=US, ST=UT, O=uofu, CN=server
        Subject Public Key Info:
            Public Key Algorithm: rsaEncryption
                Public-Key: (4096 bit)
                Modulus:
                    00:a0:60:91:e0:da:08:69:c5:67:86:15:c8:f2:09:
                    93:f9:1d:bf:1d:40:02:aa:6e:95:1f:fe:25:0d:0a:
                    48:f7:29:38:ae:5d:9f:cc:d7:25:7b:e9:5c:b4:fc:
                    5b:61:f3:7c:93:ce:ac:d8:bb:08:4d:ee:31:9c:42:
                    2d:ba:d6:f7:fd:92:ba:f1:20:56:96:b0:23:e1:98:
                    0a:2d:ca:71:4c:b6:3a:bf:a7:8c:f4:e6:2b:b0:32:
                    ee:04:8d:f3:98:f8:d6:c2:3d:24:72:ae:65:51:85:
                    9a:67:8a:3a:ff:e5:70:5e:71:cb:d0:3a:36:5b:59:
                    b0:ac:ec:af:c6:e4:0b:59:a4:e8:96:fb:4b:ab:04:
                    99:76:6e:80:2a:0c:d0:d2:84:ad:cb:8b:71:7b:43:
                    16:ce:ab:bc:62:06:b0:d2:d0:22:25:7e:c4:f0:e2:
                    d4:3d:d3:d5:f1:2e:81:64:a9:ef:73:8e:3c:2d:71:
                    50:bc:24:ef:32:c3:af:4a:37:40:4d:27:be:89:10:
                    98:12:81:c9:41:85:7c:66:88:ad:0a:c8:82:cd:a8:
                    d8:bc:41:0d:b4:60:e5:28:35:3b:2a:86:ac:89:85:
                    a2:f7:27:c2:46:ce:6b:d2:76:e1:36:f5:65:89:54:
                    98:be:86:87:90:64:fc:78:70:18:6f:82:82:b0:27:
                    d0:d0:b7:d5:98:27:17:54:68:7a:4d:06:72:4f:d1:
                    29:e3:20:70:b5:48:1e:b4:01:71:7a:e3:99:0e:09:
                    c8:30:5d:f7:29:74:9d:98:b7:a9:b1:7f:71:28:71:
                    c0:40:a4:55:d8:9f:fa:1b:c1:58:a5:31:32:a3:e0:
                    54:9a:aa:dc:55:f5:fe:d2:e9:21:00:b0:83:3a:42:
                    3e:0b:10:d6:23:cf:a8:16:41:20:82:97:c5:24:08:
                    b8:90:4c:ce:21:0e:65:ba:ad:9e:f3:ab:a3:5f:f9:
                    47:28:17:c6:ad:4c:4d:b1:8b:c2:65:24:50:a2:07:
                    be:11:2e:66:b1:86:b5:07:80:4a:6b:6e:be:fb:49:
                    9e:21:c2:e3:07:09:de:85:3a:86:a4:9d:6b:74:e1:
                    22:c8:22:a8:cb:6c:ae:7e:78:0f:ee:5d:0e:00:b2:
                    ba:d8:ae:eb:f0:b2:24:56:41:da:b4:7c:6b:fb:5e:
                    67:a9:b3:c0:0a:cd:27:74:e1:89:ca:c0:20:1a:32:
                    2d:d6:53:79:df:b5:e1:38:fc:ff:5e:2a:c3:66:4c:
                    d7:2d:1a:ec:2e:07:4e:3f:30:fe:16:c0:4f:80:c1:
                    45:b6:e3:b6:33:f4:10:ef:a0:02:9d:b6:4b:0c:ad:
                    3f:4f:07:5f:ac:39:99:64:1e:f6:98:c6:9f:b2:28:
                    71:d4:af
                Exponent: 65537 (0x10001)
        X509v3 extensions:
            X509v3 Basic Constraints: 
                CA:FALSE
            Netscape Comment: 
                OpenSSL Generated Certificate
            X509v3 Subject Key Identifier: 
                76:A2:A9:D9:86:1E:9F:31:5F:03:BA:FD:D0:DC:2E:A6:F4:CB:8F:FE
            X509v3 Authority Key Identifier: 
                keyid:E1:72:BE:17:34:6D:A4:F9:96:18:D4:2F:CA:25:14:F9:D8:AD:A5:A4
                DirName:/C=US/ST=UT/L=Salt Lake City/O=uofu/CN=ziz
                serial:0A:CE:74:B2:EE:6A:41:12:FD:2E:D4:4C:0A:69:AD:3D:73:84:11:B1
    Signature Algorithm: md5WithRSAEncryption
    Signature Value:
        34:73:3f:f4:b9:6e:62:ba:10:54:57:66:f7:05:d6:f4:b2:b0:
        46:09:ad:27:0d:35:56:a3:59:48:d5:57:ef:71:ff:eb:44:df:
        4f:83:dd:0a:a4:73:af:13:d3:04:b8:bd:4a:2b:8f:79:50:24:
        a7:af:b8:fb:f4:05:49:63:f0:b7:19:cd:0f:f7:ea:b2:1a:74:
        86:fa:bc:7d:f2:8e:d1:9a:5f:4b:23:f8:61:77:6a:ab:dd:e3:
        25:9b:bf:dd:60:36:36:b5:08:47:4d:57:4a:c5:3a:1e:e0:4e:
        34:a1:af:65:23:ea:c3:57:cf:8c:e6:6b:78:0e:6b:ee:62:45:
        3a:ff:f1:b1:0b:d3:0b:b0:7a:8d:a2:59:ed:23:69:a0:91:2b:
        e2:12:41:b0:16:49:a3:b1:fb:76:8b:2f:fc:bc:39:08:30:5a:
        45:0c:de:e4:68:10:e3:29:f2:ce:a4:83:a0:ca:ef:0e:f7:ca:
        2b:74:b9:6a:88:4f:eb:84:51:b8:9a:cd:e4:75:7c:40:d5:6a:
        a2:26:60:33:db:f2:be:40:3f:5c:74:c0:22:9a:af:b4:1f:38:
        2d:24:26:21:67:9b:60:49:fe:4f:39:e5:44:32:12:a6:c6:98:
        b1:90:1f:41:2f:de:88:64:2b:a7:4f:53:31:de:86:cb:df:21:
        85:be:6b:e0:27:5a:c7:4c:ee:4d:31:f8:21:e6:cc:20:fb:7e:
        a1:86:1d:7c:a9:3d:f1:7c:a7:16:8a:0d:99:99:82:bf:ae:65:
        90:95:60:73:c3:9a:33:b0:27:d7:e3:bd:65:02:9a:c7:22:27:
        f2:35:0a:ee:a4:67:c8:a1:65:4e:0c:e8:1f:4c:fd:67:11:3d:
        be:8a:ca:8e:fe:7b:04:c6:89:eb:8d:05:48:6f:7f:b7:9e:00:
        1f:a9:df:8e:99:94:a9:4f:11:7b:c7:19:d8:42:eb:b3:c8:97:
        eb:e9:bb:a3:af:c2:cc:ec:91:02:4c:dc:3a:16:52:ec:95:cf:
        23:14:79:46:8a:5f:8f:2b:45:2d:bf:a8:48:cd:54:17:e7:5a:
        4a:94:f0:b5:6f:82:63:b8:de:9b:0f:87:7d:d9:4a:db:85:5c:
        a3:e8:88:de:f5:34:76:bb:5c:9a:a7:41:7f:7b:43:43:96:19:
        05:33:c6:ba:de:09:9f:eb:95:c7:92:92:0f:f4:98:4c:19:be:
        dc:28:9f:ce:79:bb:00:e8:f0:8d:a4:cc:59:d2:8d:87:de:7b:
        0d:db:d4:9e:04:e9:b2:d0:bb:cd:52:d6:a8:33:d6:30:10:4b:
        0a:7c:9a:dc:1a:ce:6a:b9:7a:e7:5b:4b:cf:0e:96:b2:ee:03:
        ab:4c:48:7b:85:61:54:37
-----BEGIN CERTIFICATE-----
MIIF8jCCA9qgAwIBAgICEAAwDQYJKoZIhvcNAQEEBQAwUDELMAkGA1UEBhMCVVMx
CzAJBgNVBAgMAlVUMRcwFQYDVQQHDA5TYWx0IExha2UgQ2l0eTENMAsGA1UECgwE
dW9mdTEMMAoGA1UEAwwDeml6MB4XDTI0MDMyNzE5Mjc0MVoXDTI1MDMyNzE5Mjc0
MVowOjELMAkGA1UEBhMCVVMxCzAJBgNVBAgMAlVUMQ0wCwYDVQQKDAR1b2Z1MQ8w
DQYDVQQDDAZzZXJ2ZXIwggIiMA0GCSqGSIb3DQEBAQUAA4ICDwAwggIKAoICAQCg
YJHg2ghpxWeGFcjyCZP5Hb8dQAKqbpUf/iUNCkj3KTiuXZ/M1yV76Vy0/Fth83yT
zqzYuwhN7jGcQi261vf9krrxIFaWsCPhmAotynFMtjq/p4z05iuwMu4EjfOY+NbC
PSRyrmVRhZpnijr/5XBeccvQOjZbWbCs7K/G5AtZpOiW+0urBJl2boAqDNDShK3L
i3F7QxbOq7xiBrDS0CIlfsTw4tQ909XxLoFkqe9zjjwtcVC8JO8yw69KN0BNJ76J
EJgSgclBhXxmiK0KyILNqNi8QQ20YOUoNTsqhqyJhaL3J8JGzmvSduE29WWJVJi+
hoeQZPx4cBhvgoKwJ9DQt9WYJxdUaHpNBnJP0SnjIHC1SB60AXF645kOCcgwXfcp
dJ2Yt6mxf3EoccBApFXYn/obwVilMTKj4FSaqtxV9f7S6SEAsIM6Qj4LENYjz6gW
QSCCl8UkCLiQTM4hDmW6rZ7zq6Nf+UcoF8atTE2xi8JlJFCiB74RLmaxhrUHgEpr
br77SZ4hwuMHCd6FOoaknWt04SLIIqjLbK5+eA/uXQ4AsrrYruvwsiRWQdq0fGv7
Xmeps8AKzSd04YnKwCAaMi3WU3nfteE4/P9eKsNmTNctGuwuB04/MP4WwE+AwUW2
47Yz9BDvoAKdtksMrT9PB1+sOZlkHvaYxp+yKHHUrwIDAQABo4HrMIHoMAkGA1Ud
EwQCMAAwLAYJYIZIAYb4QgENBB8WHU9wZW5TU0wgR2VuZXJhdGVkIENlcnRpZmlj
YXRlMB0GA1UdDgQWBBR2oqnZhh6fMV8Duv3Q3C6m9MuP/jCBjQYDVR0jBIGFMIGC
gBThcr4XNG2k+ZYY1C/KJRT52K2lpKFUpFIwUDELMAkGA1UEBhMCVVMxCzAJBgNV
BAgMAlVUMRcwFQYDVQQHDA5TYWx0IExha2UgQ2l0eTENMAsGA1UECgwEdW9mdTEM
MAoGA1UEAwwDeml6ghQKznSy7mpBEv0u1EwKaa09c4QRsTANBgkqhkiG9w0BAQQF
AAOCAgEANHM/9LluYroQVFdm9wXW9LKwRgmtJw01VqNZSNVX73H/60TfT4PdCqRz
rxPTBLi9SiuPeVAkp6+4+/QFSWPwtxnND/fqshp0hvq8ffKO0ZpfSyP4YXdqq93j
JZu/3WA2NrUIR01XSsU6HuBONKGvZSPqw1fPjOZreA5r7mJFOv/xsQvTC7B6jaJZ
7SNpoJEr4hJBsBZJo7H7dosv/Lw5CDBaRQze5GgQ4ynyzqSDoMrvDvfKK3S5aohP
64RRuJrN5HV8QNVqoiZgM9vyvkA/XHTAIpqvtB84LSQmIWebYEn+TznlRDISpsaY
sZAfQS/eiGQrp09TMd6Gy98hhb5r4Cdax0zuTTH4IebMIPt+oYYdfKk98XynFooN
mZmCv65lkJVgc8OaM7An1+O9ZQKaxyIn8jUK7qRnyKFlTgzoH0z9ZxE9vorKjv57
BMaJ640FSG9/t54AH6nfjpmUqU8Re8cZ2ELrs8iX6+m7o6/CzOyRAkzcOhZS7JXP
IxR5RopfjytFLb+oSM1UF+daSpTwtW+CY7jemw+HfdlK24Vco+iI3vU0drtcmqdB
f3tDQ5YZBTPGut4Jn+uVx5KSD/SYTBm+3Cifznm7AOjwjaTMWdKNh957DdvUngTp
stC7zVLWqDPWMBBLCnya3BrOarl651tLzw6Wsu4Dq0xIe4VhVDc=
-----END CERTIFICATE-----
