Certificate:
    Data:
        Version: 3 (0x2)
        Serial Number: 4096 (0x1000)
        Signature Algorithm: md5WithRSAEncryption
        Issuer: C=US, ST=US, L=US, O=Internet Widgits Pty Ltd, CN=keycorp
        Validity
            Not Before: Mar 13 04:35:29 2024 GMT
            Not After : Mar 13 04:35:29 2025 GMT
        Subject: C=US, ST=US, O=Internet Widgits Pty Ltd, CN=server
        Subject Public Key Info:
            Public Key Algorithm: rsaEncryption
                Public-Key: (4096 bit)
                Modulus:
                    00:bd:43:ac:d9:e2:f5:c8:e6:6f:49:ee:be:da:9e:
                    d1:96:e7:18:61:1d:33:0c:6b:24:12:43:d7:86:d9:
                    0a:ae:52:05:75:91:5e:d4:f3:1e:57:76:a6:31:8b:
                    a8:36:f5:88:9b:1f:50:b4:90:06:ea:8f:3b:84:ae:
                    9b:15:f5:17:c4:88:e3:48:10:c9:a6:f0:68:34:d6:
                    f1:ab:2b:d6:7c:24:73:99:2b:06:63:13:79:a0:ab:
                    b0:6a:f5:b0:22:ef:79:61:27:1e:4a:dc:4a:83:84:
                    f6:ac:93:b1:f6:7b:70:90:04:ed:30:89:26:a2:6f:
                    9f:28:5e:c2:d7:59:2a:e0:5d:c2:ee:ad:1d:73:8c:
                    39:29:e1:c0:14:53:e4:e4:76:97:23:0d:bb:4b:13:
                    b9:af:8d:e5:fa:57:0f:b5:04:c7:65:9e:70:9d:d7:
                    55:89:e7:e4:4f:5c:40:af:79:e5:2b:11:91:1b:32:
                    6b:d8:48:90:f1:13:30:97:0a:8f:7e:63:77:05:2a:
                    0b:14:dd:28:ff:64:ff:8e:59:dd:3a:64:40:be:f9:
                    66:89:a5:ab:61:1a:ec:31:33:aa:f5:a5:d1:0f:4e:
                    70:00:ee:b1:aa:ae:1d:b0:77:c4:74:68:4b:7c:22:
                    ad:41:f0:c0:0a:9d:9b:21:98:f8:58:1a:9e:e2:e1:
                    c2:f7:be:ac:c5:23:8f:67:97:37:e8:24:cb:52:41:
                    31:e8:44:2d:6c:9e:c7:37:71:d8:bb:38:c7:50:d7:
                    3a:c1:51:4b:12:bb:06:c5:2f:23:b6:e2:07:86:57:
                    58:99:c2:3f:7b:17:f9:07:75:aa:fc:3a:38:a4:07:
                    d4:5d:4e:05:f5:32:77:09:ac:88:3b:67:1c:0c:9f:
                    14:fe:a3:ec:c7:cc:e3:7c:d7:24:fb:3a:35:f4:1e:
                    ab:04:5a:84:25:b3:f9:9f:8e:6b:c6:03:fb:a5:d6:
                    a9:77:83:2a:a0:e1:07:6e:c6:58:cd:43:6c:9d:e9:
                    d1:90:3a:94:ef:52:ae:57:f7:e2:38:14:68:06:49:
                    d7:6b:c4:bc:7c:4d:b7:ee:46:03:ef:01:87:aa:ef:
                    d0:1f:31:c0:aa:39:06:d5:9e:97:66:e0:76:f3:89:
                    bf:c5:f6:5a:83:7b:06:47:ae:6d:1e:40:2a:f2:a9:
                    1d:b9:b6:05:18:bb:f4:18:d0:7d:0e:0b:2e:fb:51:
                    c7:e1:80:4c:17:fb:c6:6f:39:50:57:d2:04:10:9f:
                    7d:97:0f:4c:d0:12:d7:e6:2f:30:c7:9c:e0:19:43:
                    75:8a:3f:0f:40:12:78:af:ca:cd:45:41:06:f2:d3:
                    16:91:8f:06:ad:22:9a:0d:b6:5c:ec:fe:f5:0b:be:
                    84:bb:d9
                Exponent: 65537 (0x10001)
        X509v3 extensions:
            X509v3 Basic Constraints: 
                CA:FALSE
            Netscape Comment: 
                OpenSSL Generated Certificate
            X509v3 Subject Key Identifier: 
                21:F1:35:EC:75:CE:2C:53:96:9E:C4:1E:AB:24:6D:5C:CA:BF:AA:7C
            X509v3 Authority Key Identifier: 
                keyid:0C:50:6A:0F:B2:0A:08:35:32:0D:2D:E7:FB:68:42:8F:7F:A2:74:CE
                DirName:/C=US/ST=US/L=US/O=Internet Widgits Pty Ltd/CN=keycorp
                serial:76:FA:E1:67:2A:55:50:4F:E7:61:60:37:AD:D6:80:3B:31:F8:01:D2
    Signature Algorithm: md5WithRSAEncryption
    Signature Value:
        62:42:86:61:c7:2c:20:85:58:db:e8:b1:e8:17:b2:67:4d:d5:
        1a:2a:99:ca:ce:4e:a7:8e:84:6f:29:9d:e2:5a:9e:fb:0b:4f:
        ba:10:5c:82:8e:cf:ad:af:d4:8f:89:27:f0:5d:06:46:38:46:
        4b:7e:43:71:92:17:6b:30:50:15:70:0e:96:d2:a4:06:ea:95:
        09:f4:df:60:bb:90:05:b2:99:77:74:48:1b:ae:d6:1f:19:12:
        44:9e:b7:12:e1:78:bb:19:dd:fb:39:8c:f4:81:2b:63:97:4a:
        4d:84:c7:5e:77:a4:2e:52:52:dc:bc:3d:d9:dc:89:9b:c7:da:
        6b:cd:a0:2b:0c:9a:97:bd:07:45:61:59:32:51:a5:87:54:cd:
        f6:19:cf:31:35:2a:56:1b:7b:b4:6f:7a:f0:3d:13:4e:49:91:
        ab:18:8b:72:af:15:74:4b:39:ec:34:19:57:6f:bf:93:41:4f:
        cd:3e:c8:92:ed:39:cc:9b:a2:9c:21:c3:84:c2:38:61:98:17:
        69:7c:e9:3a:16:30:c8:8a:60:6f:3c:45:a3:36:60:c3:04:33:
        d3:c1:3d:d4:41:b0:b1:a4:93:0c:0f:5b:86:e9:85:a5:b2:1f:
        0b:8d:1b:97:4f:8f:17:48:6c:b5:a0:62:07:08:b6:30:0f:c1:
        e7:a3:aa:ef:f4:a9:d1:ce:81:7f:aa:ec:2e:c0:7c:6f:f1:90:
        de:37:18:6f:b5:fa:cf:32:a2:e3:cd:5e:a3:d9:a8:cf:89:7d:
        dd:d0:df:20:68:6e:ee:b1:ea:8e:b9:55:5b:9e:55:68:cd:bf:
        41:16:2e:fa:af:94:da:c2:d5:42:1c:45:9e:dd:7d:0c:6a:19:
        28:66:eb:09:32:6b:16:ac:ba:02:c6:a3:01:f7:eb:e7:19:ed:
        fc:29:69:47:c6:dd:92:2a:1c:1c:a1:89:a6:ca:8b:50:1f:d7:
        d0:f3:92:2a:ed:b0:ea:e9:99:7a:2e:9b:ad:8f:29:9e:75:af:
        99:0b:b3:02:37:2d:17:3f:11:08:5c:68:d4:5d:88:24:4a:82:
        37:85:0e:61:33:7d:ed:e5:71:51:0e:4a:b2:b1:c4:4b:0d:47:
        84:fd:d5:e1:76:b7:61:5a:11:b8:fe:54:74:85:0b:d5:0f:94:
        32:aa:01:ba:55:c7:d9:a1:d4:aa:6c:ef:8f:8e:5a:7f:ff:c3:
        5d:1f:73:88:16:22:9e:ac:cd:52:10:23:f9:c2:49:67:ef:08:
        2f:04:16:33:4b:d4:f2:de:42:df:c3:52:8c:d3:0d:61:a2:d0:
        ea:e5:e2:28:b1:6a:a4:6b:87:57:54:32:02:9c:d4:21:bc:2f:
        a7:34:31:2e:93:e6:53:59
-----BEGIN CERTIFICATE-----
MIIGHjCCBAagAwIBAgICEAAwDQYJKoZIhvcNAQEEBQAwXDELMAkGA1UEBhMCVVMx
CzAJBgNVBAgMAlVTMQswCQYDVQQHDAJVUzEhMB8GA1UECgwYSW50ZXJuZXQgV2lk
Z2l0cyBQdHkgTHRkMRAwDgYDVQQDDAdrZXljb3JwMB4XDTI0MDMxMzA0MzUyOVoX
DTI1MDMxMzA0MzUyOVowTjELMAkGA1UEBhMCVVMxCzAJBgNVBAgMAlVTMSEwHwYD
VQQKDBhJbnRlcm5ldCBXaWRnaXRzIFB0eSBMdGQxDzANBgNVBAMMBnNlcnZlcjCC
AiIwDQYJKoZIhvcNAQEBBQADggIPADCCAgoCggIBAL1DrNni9cjmb0nuvtqe0Zbn
GGEdMwxrJBJD14bZCq5SBXWRXtTzHld2pjGLqDb1iJsfULSQBuqPO4SumxX1F8SI
40gQyabwaDTW8asr1nwkc5krBmMTeaCrsGr1sCLveWEnHkrcSoOE9qyTsfZ7cJAE
7TCJJqJvnyhewtdZKuBdwu6tHXOMOSnhwBRT5OR2lyMNu0sTua+N5fpXD7UEx2We
cJ3XVYnn5E9cQK955SsRkRsya9hIkPETMJcKj35jdwUqCxTdKP9k/45Z3TpkQL75
Zomlq2Ea7DEzqvWl0Q9OcADusaquHbB3xHRoS3wirUHwwAqdmyGY+FganuLhwve+
rMUjj2eXN+gky1JBMehELWyexzdx2Ls4x1DXOsFRSxK7BsUvI7biB4ZXWJnCP3sX
+Qd1qvw6OKQH1F1OBfUydwmsiDtnHAyfFP6j7MfM43zXJPs6NfQeqwRahCWz+Z+O
a8YD+6XWqXeDKqDhB27GWM1DbJ3p0ZA6lO9Srlf34jgUaAZJ12vEvHxNt+5GA+8B
h6rv0B8xwKo5BtWel2bgdvOJv8X2WoN7BkeubR5AKvKpHbm2BRi79BjQfQ4LLvtR
x+GATBf7xm85UFfSBBCffZcPTNAS1+YvMMec4BlDdYo/D0ASeK/KzUVBBvLTFpGP
Bq0img22XOz+9Qu+hLvZAgMBAAGjgfcwgfQwCQYDVR0TBAIwADAsBglghkgBhvhC
AQ0EHxYdT3BlblNTTCBHZW5lcmF0ZWQgQ2VydGlmaWNhdGUwHQYDVR0OBBYEFCHx
Nex1zixTlp7EHqskbVzKv6p8MIGZBgNVHSMEgZEwgY6AFAxQag+yCgg1Mg0t5/to
Qo9/onTOoWCkXjBcMQswCQYDVQQGEwJVUzELMAkGA1UECAwCVVMxCzAJBgNVBAcM
AlVTMSEwHwYDVQQKDBhJbnRlcm5ldCBXaWRnaXRzIFB0eSBMdGQxEDAOBgNVBAMM
B2tleWNvcnCCFHb64WcqVVBP52FgN63WgDsx+AHSMA0GCSqGSIb3DQEBBAUAA4IC
AQBiQoZhxywghVjb6LHoF7JnTdUaKpnKzk6njoRvKZ3iWp77C0+6EFyCjs+tr9SP
iSfwXQZGOEZLfkNxkhdrMFAVcA6W0qQG6pUJ9N9gu5AFspl3dEgbrtYfGRJEnrcS
4Xi7Gd37OYz0gStjl0pNhMded6QuUlLcvD3Z3Imbx9przaArDJqXvQdFYVkyUaWH
VM32Gc8xNSpWG3u0b3rwPRNOSZGrGItyrxV0SznsNBlXb7+TQU/NPsiS7TnMm6Kc
IcOEwjhhmBdpfOk6FjDIimBvPEWjNmDDBDPTwT3UQbCxpJMMD1uG6YWlsh8LjRuX
T48XSGy1oGIHCLYwD8Hno6rv9KnRzoF/quwuwHxv8ZDeNxhvtfrPMqLjzV6j2ajP
iX3d0N8gaG7useqOuVVbnlVozb9BFi76r5TawtVCHEWe3X0MahkoZusJMmsWrLoC
xqMB9+vnGe38KWlHxt2SKhwcoYmmyotQH9fQ85Iq7bDq6Zl6Lputjymeda+ZC7MC
Ny0XPxEIXGjUXYgkSoI3hQ5hM33t5XFRDkqyscRLDUeE/dXhdrdhWhG4/lR0hQvV
D5QyqgG6VcfZodSqbO+Pjlp//8NdH3OIFiKerM1SECP5wkln7wgvBBYzS9Ty3kLf
w1KM0w1hotDq5eIosWqka4dXVDICnNQhvC+nNDEuk+ZTWQ==
-----END CERTIFICATE-----
